target datalayout = "e-m:e-p270:32:32-p271:32:32-p272:64:64-i64:64-i128:128-f80:128-n8:16:32:64-S128"
target triple = "x86_64-pc-linux-gnu"

%struct.mdc2_ctx_st = type { i32, [8 x i8], [8 x i8], [8 x i8], i32 }

; Function Attrs: nounwind uwtable
define i32 @MDC2_Final(ptr noundef %0, ptr noundef %1) #0 {
  %3 = alloca ptr, align 8
  %4 = alloca ptr, align 8
  %5 = alloca i32, align 4
  %6 = alloca i32, align 4
  store ptr %0, ptr %3, align 8, !tbaa !12
  store ptr %1, ptr %4, align 8, !tbaa !3
  call void @llvm.lifetime.start.p0(i64 4, ptr %5) #5
  call void @llvm.lifetime.start.p0(i64 4, ptr %6) #5
  %7 = load ptr, ptr %4, align 8, !tbaa !3
  %8 = getelementptr inbounds nuw %struct.mdc2_ctx_st, ptr %7, i32 0, i32 0
  %9 = load i32, ptr %8, align 4, !tbaa !8
  store i32 %9, ptr %5, align 4, !tbaa !17
  %10 = load ptr, ptr %4, align 8, !tbaa !3
  %11 = getelementptr inbounds nuw %struct.mdc2_ctx_st, ptr %10, i32 0, i32 4
  %12 = load i32, ptr %11, align 4, !tbaa !11
  store i32 %12, ptr %6, align 4, !tbaa !17
  %13 = load i32, ptr %5, align 4, !tbaa !17
  %14 = icmp ugt i32 %13, 0
  br i1 %14, label %18, label %15

15:                                               ; preds = %2
  %16 = load i32, ptr %6, align 4, !tbaa !17
  %17 = icmp eq i32 %16, 2
  br i1 %17, label %18, label %41

18:                                               ; preds = %15, %2
  %19 = load i32, ptr %6, align 4, !tbaa !17
  %20 = icmp eq i32 %19, 2
  br i1 %20, label %21, label %28

21:                                               ; preds = %18
  %22 = load ptr, ptr %4, align 8, !tbaa !3
  %23 = getelementptr inbounds nuw %struct.mdc2_ctx_st, ptr %22, i32 0, i32 1
  %24 = load i32, ptr %5, align 4, !tbaa !17
  %25 = add i32 %24, 1
  store i32 %25, ptr %5, align 4, !tbaa !17
  %26 = zext i32 %24 to i64
  %27 = getelementptr inbounds nuw [8 x i8], ptr %23, i64 0, i64 %26
  store i8 -128, ptr %27, align 1, !tbaa !16
  br label %28

28:                                               ; preds = %21, %18
  %29 = load ptr, ptr %4, align 8, !tbaa !3
  %30 = getelementptr inbounds nuw %struct.mdc2_ctx_st, ptr %29, i32 0, i32 1
  %31 = load i32, ptr %5, align 4, !tbaa !17
  %32 = zext i32 %31 to i64
  %33 = getelementptr inbounds nuw [8 x i8], ptr %30, i64 0, i64 %32
  %34 = load i32, ptr %5, align 4, !tbaa !17
  %35 = sub i32 8, %34
  %36 = zext i32 %35 to i64
  call void @llvm.memset.p0.i64(ptr align 1 %33, i8 0, i64 %36, i1 false)
  %37 = load ptr, ptr %4, align 8, !tbaa !3
  %38 = load ptr, ptr %4, align 8, !tbaa !3
  %39 = getelementptr inbounds nuw %struct.mdc2_ctx_st, ptr %38, i32 0, i32 1
  %40 = getelementptr inbounds [8 x i8], ptr %39, i64 0, i64 0
  call void @mdc2_body(ptr noundef %37, ptr noundef %40, i64 noundef 8)
  br label %41

41:                                               ; preds = %28, %15
  %42 = load ptr, ptr %3, align 8, !tbaa !12
  %43 = load ptr, ptr %4, align 8, !tbaa !3
  %44 = getelementptr inbounds nuw %struct.mdc2_ctx_st, ptr %43, i32 0, i32 2
  %45 = getelementptr inbounds [8 x i8], ptr %44, i64 0, i64 0
  call void @llvm.memcpy.p0.p0.i64(ptr align 1 %42, ptr align 4 %45, i64 8, i1 false)
  %46 = load ptr, ptr %3, align 8, !tbaa !12
  %47 = getelementptr inbounds i8, ptr %46, i64 8
  %48 = load ptr, ptr %4, align 8, !tbaa !3
  %49 = getelementptr inbounds nuw %struct.mdc2_ctx_st, ptr %48, i32 0, i32 3
  %50 = getelementptr inbounds [8 x i8], ptr %49, i64 0, i64 0
  call void @llvm.memcpy.p0.p0.i64(ptr align 1 %47, ptr align 4 %50, i64 8, i1 false)
  call void @llvm.lifetime.end.p0(i64 4, ptr %6) #5
  call void @llvm.lifetime.end.p0(i64 4, ptr %5) #5
  ret i32 1
}