; Function Attrs: nounwind uwtable
define noundef i32 @MDC2_Final(ptr noundef writeonly captures(none) initializes((0, 16)) %0, ptr noundef %1) local_unnamed_addr #2 {
  %3 = load i32, ptr %1, align 4, !tbaa !3
  %4 = getelementptr inbounds nuw i8, ptr %1, i64 28
  %5 = load i32, ptr %4, align 4, !tbaa !8
  %6 = icmp ne i32 %3, 0
  %7 = icmp eq i32 %5, 2
  %or.cond = select i1 %6, i1 true, i1 %7
  br i1 %or.cond, label %8, label %20

8:                                                ; preds = %2
  br i1 %7, label %9, label %14

9:                                                ; preds = %8
  %10 = getelementptr inbounds nuw i8, ptr %1, i64 4
  %11 = add i32 %3, 1
  %12 = zext i32 %3 to i64
  %13 = getelementptr inbounds nuw [8 x i8], ptr %10, i64 0, i64 %12
  store i8 -128, ptr %13, align 1, !tbaa !9
  br label %14

14:                                               ; preds = %9, %8
  %.0 = phi i32 [ %11, %9 ], [ %3, %8 ]
  %15 = getelementptr inbounds nuw i8, ptr %1, i64 4
  %16 = zext i32 %.0 to i64
  %17 = getelementptr inbounds nuw [8 x i8], ptr %15, i64 0, i64 %16
  %18 = sub i32 8, %.0
  %19 = zext i32 %18 to i64
  tail call void @llvm.memset.p0.i64(ptr nonnull align 1 %17, i8 0, i64 %19, i1 false)
  tail call fastcc void @mdc2_body(ptr noundef nonnull %1, ptr noundef nonnull %15, i64 noundef 8)
  br label %20

20:                                               ; preds = %2, %14
  %21 = getelementptr inbounds nuw i8, ptr %1, i64 12
  %22 = load i64, ptr %21, align 4
  store i64 %22, ptr %0, align 1
  %23 = getelementptr inbounds nuw i8, ptr %0, i64 8
  %24 = getelementptr inbounds nuw i8, ptr %1, i64 20
  %25 = load i64, ptr %24, align 4
  store i64 %25, ptr %23, align 1
  ret i32 1
}